target datalayout = "e-m:e-p270:32:32-p271:32:32-p272:64:64-i64:64-i128:128-f80:128-n8:16:32:64-S128"
target triple = "x86_64-pc-linux-gnu"

%struct._zend_refcounted_h = type { i32, %union.anon.4 }
%union.anon.4 = type { i32 }
%struct._zend_string = type { %struct._zend_refcounted_h, i64, i64, [1 x i8] }
%struct._zend_ast_list = type { i16, i16, i32, i32, [1 x ptr] }
%struct.smart_str = type { ptr, i64 }

@.str.26 = private unnamed_addr constant [3 x i8] c", \00", align 1

; Function Attrs: nounwind uwtable
define internal void @zend_ast_export_list(ptr noundef %0, ptr noundef %1, i1 noundef zeroext %2, i32 noundef %3, i32 noundef %4) #0 {
  %6 = alloca ptr, align 8
  %7 = alloca i64, align 8
  %8 = alloca i8, align 1
  %9 = alloca ptr, align 8
  %10 = alloca ptr, align 8
  %11 = alloca i64, align 8
  %12 = alloca i8, align 1
  %13 = alloca i64, align 8
  %14 = alloca ptr, align 8
  %15 = alloca ptr, align 8
  %16 = alloca ptr, align 8
  %17 = alloca ptr, align 8
  %18 = alloca i8, align 1
  %19 = alloca i32, align 4
  %20 = alloca i32, align 4
  %21 = alloca i32, align 4
  store ptr %0, ptr %16, align 8
  store ptr %1, ptr %17, align 8
  %22 = zext i1 %2 to i8
  store i8 %22, ptr %18, align 1
  store i32 %3, ptr %19, align 4
  store i32 %4, ptr %20, align 4
  store i32 0, ptr %21, align 4
  br label %23

23:                                               ; preds = %90, %5
  %24 = load i32, ptr %21, align 4
  %25 = load ptr, ptr %17, align 8
  %26 = getelementptr inbounds %struct._zend_ast_list, ptr %25, i32 0, i32 3
  %27 = load i32, ptr %26, align 8
  %28 = icmp ult i32 %24, %27
  br i1 %28, label %29, label %102

29:                                               ; preds = %23
  %30 = load i32, ptr %21, align 4
  %31 = icmp ne i32 %30, 0
  br i1 %31, label %32, label %90

32:                                               ; preds = %29
  %33 = load i8, ptr %18, align 1
  %34 = trunc i8 %33 to i1
  br i1 %34, label %35, label %90

35:                                               ; preds = %32
  %36 = load ptr, ptr %16, align 8
  store ptr %36, ptr %14, align 8
  store ptr @.str.26, ptr %15, align 8
  %37 = load ptr, ptr %14, align 8
  %38 = load ptr, ptr %15, align 8
  %39 = load ptr, ptr %15, align 8
  %40 = call i64 @strlen(ptr noundef %39) #14
  store ptr %37, ptr %9, align 8
  store ptr %38, ptr %10, align 8
  store i64 %40, ptr %11, align 8
  store i8 0, ptr %12, align 1
  %41 = load ptr, ptr %9, align 8
  %42 = load i64, ptr %11, align 8
  %43 = load i8, ptr %12, align 1
  %44 = trunc i8 %43 to i1
  store ptr %41, ptr %6, align 8
  store i64 %42, ptr %7, align 8
  %45 = zext i1 %44 to i8
  store i8 %45, ptr %8, align 1
  %46 = load ptr, ptr %6, align 8
  %47 = load ptr, ptr %46, align 8
  %48 = icmp ne ptr %47, null
  %49 = xor i1 %48, true
  br i1 %49, label %50, label %51

50:                                               ; preds = %35
  br label %64

51:                                               ; preds = %35
  %52 = load ptr, ptr %6, align 8
  %53 = load ptr, ptr %52, align 8
  %54 = getelementptr inbounds %struct._zend_string, ptr %53, i32 0, i32 2
  %55 = load i64, ptr %54, align 8
  %56 = load i64, ptr %7, align 8
  %57 = add i64 %56, %55
  store i64 %57, ptr %7, align 8
  %58 = load i64, ptr %7, align 8
  %59 = load ptr, ptr %6, align 8
  %60 = getelementptr inbounds %struct.smart_str, ptr %59, i32 0, i32 1
  %61 = load i64, ptr %60, align 8
  %62 = icmp uge i64 %58, %61
  br i1 %62, label %63, label %74

63:                                               ; preds = %51
  br label %64

64:                                               ; preds = %63, %50
  %65 = load i8, ptr %8, align 1
  %66 = trunc i8 %65 to i1
  br i1 %66, label %67, label %70

67:                                               ; preds = %64
  %68 = load ptr, ptr %6, align 8
  %69 = load i64, ptr %7, align 8
  call void @smart_str_realloc(ptr noundef %68, i64 noundef %69) #10
  br label %73

70:                                               ; preds = %64
  %71 = load ptr, ptr %6, align 8
  %72 = load i64, ptr %7, align 8
  call void @smart_str_erealloc(ptr noundef %71, i64 noundef %72) #10
  br label %73

73:                                               ; preds = %70, %67
  br label %74

74:                                               ; preds = %73, %51
  %75 = load i64, ptr %7, align 8
  store i64 %75, ptr %13, align 8
  %76 = load ptr, ptr %9, align 8
  %77 = load ptr, ptr %76, align 8
  %78 = getelementptr inbounds %struct._zend_string, ptr %77, i32 0, i32 3
  %79 = load ptr, ptr %9, align 8
  %80 = load ptr, ptr %79, align 8
  %81 = getelementptr inbounds %struct._zend_string, ptr %80, i32 0, i32 2
  %82 = load i64, ptr %81, align 8
  %83 = getelementptr inbounds i8, ptr %78, i64 %82
  %84 = load ptr, ptr %10, align 8
  %85 = load i64, ptr %11, align 8
  call void @llvm.memcpy.p0.p0.i64(ptr align 1 %83, ptr align 1 %84, i64 %85, i1 false)
  %86 = load i64, ptr %13, align 8
  %87 = load ptr, ptr %9, align 8
  %88 = load ptr, ptr %87, align 8
  %89 = getelementptr inbounds %struct._zend_string, ptr %88, i32 0, i32 2
  store i64 %86, ptr %89, align 8
  br label %90

90:                                               ; preds = %74, %32, %29
  %91 = load ptr, ptr %16, align 8
  %92 = load ptr, ptr %17, align 8
  %93 = getelementptr inbounds %struct._zend_ast_list, ptr %92, i32 0, i32 4
  %94 = load i32, ptr %21, align 4
  %95 = zext i32 %94 to i64
  %96 = getelementptr inbounds [1 x ptr], ptr %93, i64 0, i64 %95
  %97 = load ptr, ptr %96, align 8
  %98 = load i32, ptr %19, align 4
  %99 = load i32, ptr %20, align 4
  call void @zend_ast_export_ex(ptr noundef %91, ptr noundef %97, i32 noundef %98, i32 noundef %99)
  %100 = load i32, ptr %21, align 4
  %101 = add i32 %100, 1
  store i32 %101, ptr %21, align 4
  br label %23

102:                                              ; preds = %23
  ret void
}