; Function Attrs: nounwind uwtable
define internal fastcc void @zend_ast_export_list(ptr noundef %0, ptr nocapture noundef readonly %1, i1 noundef zeroext %2, i32 noundef %3, i32 noundef %4) unnamed_addr #0 {
  %6 = getelementptr inbounds i8, ptr %1, i64 8
  %7 = load i32, ptr %6, align 8
  %.not40 = icmp eq i32 %7, 0
  br i1 %.not40, label %._crit_edge, label %.lr.ph

.lr.ph:                                           ; preds = %5
  %8 = getelementptr inbounds i8, ptr %0, i64 8
  %9 = getelementptr inbounds i8, ptr %1, i64 16
  br i1 %2, label %.lr.ph.split, label %.lr.ph.split.us

.lr.ph.split.us:                                  ; preds = %.lr.ph, %.lr.ph.split.us
  %indvars.iv = phi i64 [ %indvars.iv.next, %.lr.ph.split.us ], [ 0, %.lr.ph ]
  %10 = getelementptr inbounds [1 x ptr], ptr %9, i64 0, i64 %indvars.iv
  %11 = load ptr, ptr %10, align 8
  tail call fastcc void @zend_ast_export_ex(ptr noundef %0, ptr noundef %11, i32 noundef %3, i32 noundef %4)
  %indvars.iv.next = add nuw nsw i64 %indvars.iv, 1
  %12 = load i32, ptr %6, align 8
  %13 = zext i32 %12 to i64
  %14 = icmp ult i64 %indvars.iv.next, %13
  br i1 %14, label %.lr.ph.split.us, label %._crit_edge

.lr.ph.split:                                     ; preds = %.lr.ph, %30
  %indvars.iv43 = phi i64 [ %indvars.iv.next44, %30 ], [ 0, %.lr.ph ]
  %.not.not = icmp eq i64 %indvars.iv43, 0
  br i1 %.not.not, label %30, label %15

15:                                               ; preds = %.lr.ph.split
  %16 = load ptr, ptr %0, align 8
  %.not36 = icmp eq ptr %16, null
  br i1 %.not36, label %22, label %17

17:                                               ; preds = %15
  %18 = getelementptr inbounds i8, ptr %16, i64 16
  %19 = load i64, ptr %18, align 8
  %20 = add i64 %19, 2
  %21 = load i64, ptr %8, align 8
  %.not37 = icmp ult i64 %20, %21
  br i1 %.not37, label %23, label %22

22:                                               ; preds = %15, %17
  %.033 = phi i64 [ 2, %15 ], [ %20, %17 ]
  tail call void @smart_str_erealloc(ptr noundef nonnull %0, i64 noundef %.033) #14
  %.pre = load ptr, ptr %0, align 8
  %.phi.trans.insert = getelementptr inbounds i8, ptr %.pre, i64 16
  %.pre46 = load i64, ptr %.phi.trans.insert, align 8
  br label %23

23:                                               ; preds = %22, %17
  %24 = phi i64 [ %.pre46, %22 ], [ %19, %17 ]
  %25 = phi ptr [ %.pre, %22 ], [ %16, %17 ]
  %.1 = phi i64 [ %.033, %22 ], [ %20, %17 ]
  %26 = getelementptr inbounds i8, ptr %25, i64 24
  %27 = getelementptr inbounds i8, ptr %26, i64 %24
  store i16 8236, ptr %27, align 1
  %28 = load ptr, ptr %0, align 8
  %29 = getelementptr inbounds i8, ptr %28, i64 16
  store i64 %.1, ptr %29, align 8
  br label %30

30:                                               ; preds = %.lr.ph.split, %23
  %31 = getelementptr inbounds [1 x ptr], ptr %9, i64 0, i64 %indvars.iv43
  %32 = load ptr, ptr %31, align 8
  tail call fastcc void @zend_ast_export_ex(ptr noundef %0, ptr noundef %32, i32 noundef %3, i32 noundef %4)
  %indvars.iv.next44 = add nuw nsw i64 %indvars.iv43, 1
  %33 = load i32, ptr %6, align 8
  %34 = zext i32 %33 to i64
  %35 = icmp ult i64 %indvars.iv.next44, %34
  br i1 %35, label %.lr.ph.split, label %._crit_edge

._crit_edge:                                      ; preds = %.lr.ph.split.us, %30, %5
  ret void
}